; Function Attrs: mustprogress uwtable
define noundef zeroext i1 @_ZNK5Yosys11MemContents15_range_containsESt17_Rb_tree_iteratorISt4pairIKjNS_5RTLIL5ConstEEEjj(ptr noundef nonnull readonly align 8 captures(address) dereferenceable(96) %0, ptr %1, i32 noundef %2, i32 noundef %3) local_unnamed_addr #3 align 2 {
  %5 = getelementptr inbounds nuw i8, ptr %0, i64 56
  %.not6 = icmp eq ptr %1, %5
  br i1 %.not6, label %17, label %6

6:                                                ; preds = %4
  %7 = getelementptr inbounds nuw i8, ptr %1, i64 32
  %8 = load i32, ptr %7, align 8, !tbaa !593
  %.not = icmp ugt i32 %8, %2
  br i1 %.not, label %17, label %9

9:                                                ; preds = %6
  %10 = sub i32 %3, %8
  %11 = getelementptr inbounds nuw i8, ptr %1, i64 40
  %12 = tail call noundef i32 @_ZNK5Yosys5RTLIL5Const4sizeEv(ptr noundef nonnull align 8 dereferenceable(40) %11)
  %13 = getelementptr inbounds nuw i8, ptr %0, i64 4
  %14 = load i32, ptr %13, align 4, !tbaa !582
  %15 = sdiv i32 %12, %14
  %16 = icmp ule i32 %10, %15
  br label %17

17:                                               ; preds = %9, %6, %4
  %18 = phi i1 [ false, %6 ], [ false, %4 ], [ %16, %9 ]
  ret i1 %18
}